; Function Attrs: nounwind uwtable
define ptr @l_Std_Sat_AIG_toCNF_mixAssigns___rarg(ptr noundef %0, ptr noundef %1, ptr noundef %2) #0 {
  %4 = ptrtoint ptr %2 to i64
  %5 = and i64 %4, 1
  %.not.i26 = icmp eq i64 %5, 0
  br i1 %.not.i26, label %9, label %6

6:                                                ; preds = %3
  %7 = lshr i64 %4, 1
  %8 = trunc i64 %7 to i32
  br label %lean_obj_tag.exit

9:                                                ; preds = %3
  %10 = getelementptr i8, ptr %2, i64 4
  %.val.i = load i32, ptr %10, align 4
  %11 = lshr i32 %.val.i, 24
  br label %lean_obj_tag.exit

lean_obj_tag.exit:                                ; preds = %6, %9
  %.0.i = phi i32 [ %8, %6 ], [ %11, %9 ]
  %12 = icmp eq i32 %.0.i, 0
  br i1 %12, label %13, label %41

13:                                               ; preds = %lean_obj_tag.exit
  %14 = ptrtoint ptr %1 to i64
  %15 = and i64 %14, 1
  %.not34 = icmp eq i64 %15, 0
  br i1 %.not34, label %16, label %lean_dec.exit19

16:                                               ; preds = %13
  %17 = load i32, ptr %1, align 4, !tbaa !4
  %18 = icmp sgt i32 %17, 1
  br i1 %18, label %19, label %21, !prof !13

19:                                               ; preds = %16
  %20 = add nsw i32 %17, -1
  store i32 %20, ptr %1, align 4, !tbaa !4
  br label %lean_dec.exit19

21:                                               ; preds = %16
  %.not.i = icmp eq i32 %17, 0
  br i1 %.not.i, label %lean_dec.exit19, label %22

22:                                               ; preds = %21
  tail call void @lean_dec_ref_cold(ptr noundef nonnull %1) #3
  br label %lean_dec.exit19

lean_dec.exit19:                                  ; preds = %22, %21, %19, %13
  %23 = getelementptr inbounds nuw i8, ptr %2, i64 8
  %24 = load ptr, ptr %23, align 8, !tbaa !9
  %25 = ptrtoint ptr %24 to i64
  %26 = and i64 %25, 1
  %.not35 = icmp eq i64 %26, 0
  br i1 %.not35, label %27, label %lean_inc.exit16

27:                                               ; preds = %lean_dec.exit19
  %.val.i27 = load i32, ptr %24, align 4, !tbaa !4
  %28 = icmp sgt i32 %.val.i27, 0
  br i1 %28, label %29, label %31, !prof !13

29:                                               ; preds = %27
  %30 = add nuw i32 %.val.i27, 1
  store i32 %30, ptr %24, align 4, !tbaa !4
  br label %lean_inc.exit16

31:                                               ; preds = %27
  %.not.i28 = icmp eq i32 %.val.i27, 0
  br i1 %.not.i28, label %lean_inc.exit16, label %32

32:                                               ; preds = %31
  tail call void @lean_inc_ref_cold(ptr noundef nonnull %24) #3
  br label %lean_inc.exit16

lean_inc.exit16:                                  ; preds = %32, %31, %29, %lean_dec.exit19
  br i1 %.not.i26, label %33, label %lean_dec.exit18

33:                                               ; preds = %lean_inc.exit16
  %34 = load i32, ptr %2, align 4, !tbaa !4
  %35 = icmp sgt i32 %34, 1
  br i1 %35, label %36, label %38, !prof !13

36:                                               ; preds = %33
  %37 = add nsw i32 %34, -1
  store i32 %37, ptr %2, align 4, !tbaa !4
  br label %lean_dec.exit18

38:                                               ; preds = %33
  %.not.i20 = icmp eq i32 %34, 0
  br i1 %.not.i20, label %lean_dec.exit18, label %39

39:                                               ; preds = %38
  tail call void @lean_dec_ref_cold(ptr noundef nonnull %2) #3
  br label %lean_dec.exit18

lean_dec.exit18:                                  ; preds = %39, %38, %36, %lean_inc.exit16
  %40 = tail call ptr @lean_apply_1(ptr noundef %0, ptr noundef %24) #3
  br label %69

41:                                               ; preds = %lean_obj_tag.exit
  %42 = ptrtoint ptr %0 to i64
  %43 = and i64 %42, 1
  %.not = icmp eq i64 %43, 0
  br i1 %.not, label %44, label %lean_dec.exit17

44:                                               ; preds = %41
  %45 = load i32, ptr %0, align 4, !tbaa !4
  %46 = icmp sgt i32 %45, 1
  br i1 %46, label %47, label %49, !prof !13

47:                                               ; preds = %44
  %48 = add nsw i32 %45, -1
  store i32 %48, ptr %0, align 4, !tbaa !4
  br label %lean_dec.exit17

49:                                               ; preds = %44
  %.not.i22 = icmp eq i32 %45, 0
  br i1 %.not.i22, label %lean_dec.exit17, label %50

50:                                               ; preds = %49
  tail call void @lean_dec_ref_cold(ptr noundef nonnull %0) #3
  br label %lean_dec.exit17

lean_dec.exit17:                                  ; preds = %50, %49, %47, %41
  %51 = getelementptr inbounds nuw i8, ptr %2, i64 8
  %52 = load ptr, ptr %51, align 8, !tbaa !9
  %53 = ptrtoint ptr %52 to i64
  %54 = and i64 %53, 1
  %.not32 = icmp eq i64 %54, 0
  br i1 %.not32, label %55, label %lean_inc.exit

55:                                               ; preds = %lean_dec.exit17
  %.val.i29 = load i32, ptr %52, align 4, !tbaa !4
  %56 = icmp sgt i32 %.val.i29, 0
  br i1 %56, label %57, label %59, !prof !13

57:                                               ; preds = %55
  %58 = add nuw i32 %.val.i29, 1
  store i32 %58, ptr %52, align 4, !tbaa !4
  br label %lean_inc.exit

59:                                               ; preds = %55
  %.not.i30 = icmp eq i32 %.val.i29, 0
  br i1 %.not.i30, label %lean_inc.exit, label %60

60:                                               ; preds = %59
  tail call void @lean_inc_ref_cold(ptr noundef nonnull %52) #3
  br label %lean_inc.exit

lean_inc.exit:                                    ; preds = %60, %59, %57, %lean_dec.exit17
  br i1 %.not.i26, label %61, label %lean_dec.exit

61:                                               ; preds = %lean_inc.exit
  %62 = load i32, ptr %2, align 4, !tbaa !4
  %63 = icmp sgt i32 %62, 1
  br i1 %63, label %64, label %66, !prof !13

64:                                               ; preds = %61
  %65 = add nsw i32 %62, -1
  store i32 %65, ptr %2, align 4, !tbaa !4
  br label %lean_dec.exit

66:                                               ; preds = %61
  %.not.i24 = icmp eq i32 %62, 0
  br i1 %.not.i24, label %lean_dec.exit, label %67

67:                                               ; preds = %66
  tail call void @lean_dec_ref_cold(ptr noundef nonnull %2) #3
  br label %lean_dec.exit

lean_dec.exit:                                    ; preds = %67, %66, %64, %lean_inc.exit
  %68 = tail call ptr @lean_apply_1(ptr noundef %1, ptr noundef %52) #3
  br label %69

69:                                               ; preds = %lean_dec.exit, %lean_dec.exit18
  %.0 = phi ptr [ %40, %lean_dec.exit18 ], [ %68, %lean_dec.exit ]
  ret ptr %.0
}